; Function Attrs: mustprogress uwtable
define dso_local void @_ZN4pbrt10ThreadPool12AddToJobListEPNS_11ParallelJobE(ptr dead_on_unwind noalias writable writeonly sret(%"class.std::unique_lock") align 8 captures(none) initializes((0, 8)) %0, ptr noundef nonnull align 8 dereferenceable(128) %1, ptr noundef %2) local_unnamed_addr #0 align 2 {
  %4 = getelementptr inbounds nuw i8, ptr %1, i64 24
  store ptr %4, ptr %0, align 8, !tbaa !25
  %5 = tail call noundef i32 @pthread_mutex_lock(ptr noundef nonnull align 8 dereferenceable(40) %4) #25
  %.not.i.i.i = icmp eq i32 %5, 0
  br i1 %.not.i.i.i, label %_ZNSt11unique_lockISt5mutexEC2ERS0_.exit, label %6

6:                                                ; preds = %3
  tail call void @_ZSt20__throw_system_errori(i32 noundef %5) #27
  unreachable

_ZNSt11unique_lockISt5mutexEC2ERS0_.exit:         ; preds = %3
  %7 = getelementptr inbounds nuw i8, ptr %0, i64 8
  store i8 1, ptr %7, align 8, !tbaa !29
  %8 = getelementptr inbounds nuw i8, ptr %1, i64 72
  %9 = load ptr, ptr %8, align 8, !tbaa !45
  %.not = icmp eq ptr %9, null
  br i1 %.not, label %12, label %10

10:                                               ; preds = %_ZNSt11unique_lockISt5mutexEC2ERS0_.exit
  %11 = getelementptr inbounds nuw i8, ptr %9, i64 16
  store ptr %2, ptr %11, align 8, !tbaa !86
  br label %12

12:                                               ; preds = %10, %_ZNSt11unique_lockISt5mutexEC2ERS0_.exit
  %13 = getelementptr inbounds nuw i8, ptr %2, i64 24
  store ptr %9, ptr %13, align 8, !tbaa !87
  store ptr %2, ptr %8, align 8, !tbaa !45
  %14 = getelementptr inbounds nuw i8, ptr %1, i64 80
  tail call void @_ZNSt18condition_variable10notify_allEv(ptr noundef nonnull align 8 dereferenceable(48) %14) #25
  ret void
}